; Function Attrs: mustprogress nofree norecurse nosync nounwind willreturn memory(none) uwtable
define internal noundef zeroext i1 @HIDAPI_DriverGameCube_IsSupportedDevice(ptr readnone captures(none) %0, ptr readnone captures(none) %1, i32 %2, i16 noundef zeroext %3, i16 noundef zeroext %4, i16 zeroext %5, i32 %6, i32 %7, i32 %8, i32 %9) #1 {
  %11 = icmp eq i16 %3, 1406
  %12 = icmp eq i16 %4, 823
  %or.cond = and i1 %11, %12
  br i1 %or.cond, label %17, label %13

13:                                               ; preds = %10
  %14 = icmp eq i16 %3, 121
  br i1 %14, label %15, label %17

15:                                               ; preds = %13
  %switch.tableidx = add i16 %4, -6211
  %16 = icmp ult i16 %switch.tableidx, 4
  br i1 %16, label %switch.lookup, label %17

switch.lookup:                                    ; preds = %15
  %switch.cast = trunc nuw i16 %switch.tableidx to i4
  %switch.downshift = lshr i4 -5, %switch.cast
  %switch.masked = trunc i4 %switch.downshift to i1
  br label %17

17:                                               ; preds = %13, %15, %switch.lookup, %10
  %.0 = phi i1 [ true, %10 ], [ %switch.masked, %switch.lookup ], [ false, %15 ], [ false, %13 ]
  ret i1 %.0
}